; Function Attrs: mustprogress uwtable
define internal void @"_ZNSt17_Function_handlerIFvRKN2cv5RangeEEZNS0_8ximgproc15ScanSegmentImpl7iterateERKNS0_11_InputArrayEE3$_2E9_M_invokeERKSt9_Any_dataS3_"(ptr noundef nonnull readonly align 8 captures(none) dereferenceable(16) %0, ptr noundef nonnull readonly align 4 captures(none) dereferenceable(8) %1) #6 align 2 {
  %.val = load ptr, ptr %0, align 8, !tbaa !216
  %3 = load i32, ptr %1, align 4, !tbaa !138
  %4 = getelementptr inbounds nuw i8, ptr %1, i64 4
  %5 = load i32, ptr %4, align 4, !tbaa !140
  %6 = icmp slt i32 %3, %5
  br i1 %6, label %.lr.ph.i.i.i, label %"_ZSt10__invoke_rIvRZN2cv8ximgproc15ScanSegmentImpl7iterateERKNS0_11_InputArrayEE3$_2JRKNS0_5RangeEEENSt9enable_ifIXsr6__and_ISt7is_voidIT_ESt14__is_invocableIT0_JDpT1_EEEE5valueESD_E4typeEOSG_DpOSH_.exit"

.lr.ph.i.i.i:                                     ; preds = %2, %.lr.ph.i.i.i
  %.01.i.i.i = phi i32 [ %7, %.lr.ph.i.i.i ], [ %3, %2 ]
  tail call void @_ZN2cv8ximgproc15ScanSegmentImpl3OP3Ei(ptr noundef nonnull align 8 dereferenceable(7144) %.val, i32 noundef %.01.i.i.i)
  %7 = add nsw i32 %.01.i.i.i, 1
  %8 = load i32, ptr %4, align 4, !tbaa !140
  %9 = icmp slt i32 %7, %8
  br i1 %9, label %.lr.ph.i.i.i, label %"_ZSt10__invoke_rIvRZN2cv8ximgproc15ScanSegmentImpl7iterateERKNS0_11_InputArrayEE3$_2JRKNS0_5RangeEEENSt9enable_ifIXsr6__and_ISt7is_voidIT_ESt14__is_invocableIT0_JDpT1_EEEE5valueESD_E4typeEOSG_DpOSH_.exit", !llvm.loop !218

"_ZSt10__invoke_rIvRZN2cv8ximgproc15ScanSegmentImpl7iterateERKNS0_11_InputArrayEE3$_2JRKNS0_5RangeEEENSt9enable_ifIXsr6__and_ISt7is_voidIT_ESt14__is_invocableIT0_JDpT1_EEEE5valueESD_E4typeEOSG_DpOSH_.exit": ; preds = %.lr.ph.i.i.i, %2
  ret void
}